target datalayout = "e-m:e-p270:32:32-p271:32:32-p272:64:64-i64:64-i128:128-f80:128-n8:16:32:64-S128"
target triple = "x86_64-pc-linux-gnu"

%struct.WasmEdge_String = type { i32, ptr }

; Function Attrs: mustprogress nounwind uwtable
define void @WasmEdge_StringDelete(i32 %0, ptr %1) #0 {
  %3 = alloca %struct.WasmEdge_String, align 8
  %4 = getelementptr inbounds { i32, ptr }, ptr %3, i32 0, i32 0
  store i32 %0, ptr %4, align 8
  %5 = getelementptr inbounds { i32, ptr }, ptr %3, i32 0, i32 1
  store ptr %1, ptr %5, align 8
  %6 = getelementptr inbounds %struct.WasmEdge_String, ptr %3, i32 0, i32 1
  %7 = load ptr, ptr %6, align 8
  %8 = icmp ne ptr %7, null
  br i1 %8, label %9, label %15

9:                                                ; preds = %2
  %10 = getelementptr inbounds %struct.WasmEdge_String, ptr %3, i32 0, i32 1
  %11 = load ptr, ptr %10, align 8
  %12 = icmp eq ptr %11, null
  br i1 %12, label %14, label %13

13:                                               ; preds = %9
  call void @_ZdaPv(ptr noundef %11) #22
  br label %14

14:                                               ; preds = %13, %9
  br label %15

15:                                               ; preds = %14, %2
  ret void
}