; Function Attrs: mustprogress nounwind uwtable
define void @WasmEdge_StringDelete(i32 %0, ptr %1) local_unnamed_addr #10 {
  %.not = icmp eq ptr %1, null
  br i1 %.not, label %4, label %3

3:                                                ; preds = %2
  tail call void @_ZdaPv(ptr noundef nonnull %1) #36
  br label %4

4:                                                ; preds = %3, %2
  ret void
}